; ModuleID = 'bench/nuttx/original/lib_wmemset.c.ll'
source_filename = "bench/nuttx/original/lib_wmemset.c.ll"
target datalayout = "e-m:e-p270:32:32-p271:32:32-p272:64:64-i64:64-i128:128-f80:128-n8:16:32:64-S128"
target triple = "x86_64-pc-linux-gnu"

; Function Attrs: nofree norecurse nosync nounwind memory(argmem: write) uwtable
define noundef ptr @wmemset(ptr noundef returned writeonly %0, i32 noundef %1, i64 noundef %2) local_unnamed_addr #0 {
  %.not = icmp eq i64 %2, 0
  br i1 %.not, label %._crit_edge, label %.lr.ph

.lr.ph:                                           ; preds = %3, %.lr.ph
  %.09 = phi i64 [ %5, %.lr.ph ], [ 0, %3 ]
  %.078 = phi ptr [ %4, %.lr.ph ], [ %0, %3 ]
  store i32 %1, ptr %.078, align 4
  %4 = getelementptr inbounds nuw i8, ptr %.078, i64 4
  %5 = add nuw i64 %.09, 1
  %exitcond.not = icmp eq i64 %5, %2
  br i1 %exitcond.not, label %._crit_edge, label %.lr.ph, !llvm.loop !6

._crit_edge:                                      ; preds = %.lr.ph, %3
  ret ptr %0
}


!llvm.module.flags = !{!0, !1, !2, !3, !4, !5}

!0 = !{i32 7, !"Dwarf Version", i32 5}
!1 = !{i32 2, !"Debug Info Version", i32 3}
!2 = !{i32 1, !"wchar_size", i32 4}
!3 = !{i32 8, !"PIC Level", i32 2}
!4 = !{i32 7, !"uwtable", i32 2}
!5 = !{i32 7, !"frame-pointer", i32 2}
!6 = distinct !{!6, !7}
!7 = !{!"llvm.loop.mustprogress"}
